target datalayout = "e-m:e-p270:32:32-p271:32:32-p272:64:64-i64:64-i128:128-f80:128-n8:16:32:64-S128"
target triple = "x86_64-pc-linux-gnu"

%struct.MEMO = type { i64, i64, i64, i64, %union.anon.1 }
%union.anon.1 = type { i64 }

@.str.80 = private unnamed_addr constant [10 x i8] c"../enum.c\00", align 1
@__const.imemo_count_up.buf = private unnamed_addr constant [2 x i64] [i64 0, i64 1], align 16

; Function Attrs: inlinehint nounwind sspstrong willreturn memory(none) uwtable
define internal zeroext i1 @RB_IMMEDIATE_P(i64 noundef %0) #6 {
  %2 = alloca i64, align 8
  store i64 %0, ptr %2, align 8, !tbaa !14
  %3 = load i64, ptr %2, align 8, !tbaa !14
  %4 = and i64 %3, 7
  %5 = icmp ne i64 %4, 0
  ret i1 %5
}

; Function Attrs: inlinehint nounwind sspstrong willreturn memory(none) uwtable
define internal zeroext i1 @RB_SPECIAL_CONST_P(i64 noundef %0) #6 {
  %2 = alloca i64, align 8
  store i64 %0, ptr %2, align 8, !tbaa !14
  %3 = load i64, ptr %2, align 8, !tbaa !14
  %4 = icmp eq i64 %3, 0
  br i1 %4, label %8, label %5

5:                                                ; preds = %1
  %6 = load i64, ptr %2, align 8, !tbaa !14
  %7 = call zeroext i1 @RB_IMMEDIATE_P(i64 noundef %6) #25
  br label %8

8:                                                ; preds = %5, %1
  %9 = phi i1 [ true, %1 ], [ %7, %5 ]
  ret i1 %9
}

; Function Attrs: inlinehint nounwind sspstrong uwtable
define internal i64 @rb_obj_written(i64 noundef %0, i64 noundef %1, i64 noundef %2, ptr noundef %3, i32 noundef %4) #3 {
  %6 = alloca i64, align 8
  %7 = alloca i64, align 8
  %8 = alloca i64, align 8
  %9 = alloca ptr, align 8
  %10 = alloca i32, align 4
  store i64 %0, ptr %6, align 8, !tbaa !14
  store i64 %1, ptr %7, align 8, !tbaa !14
  store i64 %2, ptr %8, align 8, !tbaa !14
  store ptr %3, ptr %9, align 8, !tbaa !86
  store i32 %4, ptr %10, align 4, !tbaa !7
  %11 = load i64, ptr %8, align 8, !tbaa !14
  %12 = call zeroext i1 @RB_SPECIAL_CONST_P(i64 noundef %11) #25
  br i1 %12, label %16, label %13

13:                                               ; preds = %5
  %14 = load i64, ptr %6, align 8, !tbaa !14
  %15 = load i64, ptr %8, align 8, !tbaa !14
  call void @rb_gc_writebarrier(i64 noundef %14, i64 noundef %15)
  br label %16

16:                                               ; preds = %13, %5
  %17 = load i64, ptr %6, align 8, !tbaa !14
  ret i64 %17
}

; Function Attrs: inlinehint nounwind sspstrong uwtable
define internal i64 @rb_obj_write(i64 noundef %0, ptr noundef %1, i64 noundef %2, ptr noundef %3, i32 noundef %4) #3 {
  %6 = alloca i64, align 8
  %7 = alloca ptr, align 8
  %8 = alloca i64, align 8
  %9 = alloca ptr, align 8
  %10 = alloca i32, align 4
  store i64 %0, ptr %6, align 8, !tbaa !14
  store ptr %1, ptr %7, align 8, !tbaa !11
  store i64 %2, ptr %8, align 8, !tbaa !14
  store ptr %3, ptr %9, align 8, !tbaa !86
  store i32 %4, ptr %10, align 4, !tbaa !7
  %11 = load i64, ptr %8, align 8, !tbaa !14
  %12 = load ptr, ptr %7, align 8, !tbaa !11
  store i64 %11, ptr %12, align 8, !tbaa !14
  %13 = load i64, ptr %6, align 8, !tbaa !14
  %14 = load i64, ptr %8, align 8, !tbaa !14
  %15 = load ptr, ptr %9, align 8, !tbaa !86
  %16 = load i32, ptr %10, align 4, !tbaa !7
  %17 = call i64 @rb_obj_written(i64 noundef %13, i64 noundef 36, i64 noundef %14, ptr noundef %15, i32 noundef %16)
  %18 = load i64, ptr %6, align 8, !tbaa !14
  ret i64 %18
}

; Function Attrs: nounwind sspstrong uwtable
define internal void @imemo_count_up(ptr noundef %0) #0 {
  %2 = alloca ptr, align 8
  %3 = alloca [2 x i64], align 16
  store ptr %0, ptr %2, align 8, !tbaa !34
  %4 = load ptr, ptr %2, align 8, !tbaa !34
  %5 = getelementptr inbounds nuw %struct.MEMO, ptr %4, i32 0, i32 0
  %6 = load i64, ptr %5, align 8, !tbaa !113
  %7 = and i64 %6, 65536
  %8 = icmp ne i64 %7, 0
  br i1 %8, label %9, label %19

9:                                                ; preds = %1
  %10 = load ptr, ptr %2, align 8, !tbaa !34
  %11 = ptrtoint ptr %10 to i64
  %12 = load ptr, ptr %2, align 8, !tbaa !34
  %13 = getelementptr inbounds nuw %struct.MEMO, ptr %12, i32 0, i32 4
  %14 = load ptr, ptr %2, align 8, !tbaa !34
  %15 = getelementptr inbounds nuw %struct.MEMO, ptr %14, i32 0, i32 4
  %16 = load i64, ptr %15, align 8, !tbaa !31
  %17 = call i64 @rb_int_succ(i64 noundef %16)
  %18 = call i64 @rb_obj_write(i64 noundef %11, ptr noundef %13, i64 noundef %17, ptr noundef @.str.80, i32 noundef 217)
  br label %38

19:                                               ; preds = %1
  %20 = load ptr, ptr %2, align 8, !tbaa !34
  %21 = getelementptr inbounds nuw %struct.MEMO, ptr %20, i32 0, i32 4
  %22 = load i64, ptr %21, align 8, !tbaa !31
  %23 = add i64 %22, 1
  store i64 %23, ptr %21, align 8, !tbaa !31
  %24 = icmp eq i64 %23, 0
  br i1 %24, label %25, label %37

25:                                               ; preds = %19
  call void @llvm.lifetime.start.p0(i64 16, ptr %3) #22
  call void @llvm.memcpy.p0.p0.i64(ptr align 16 %3, ptr align 16 @__const.imemo_count_up.buf, i64 16, i1 false)
  %26 = load ptr, ptr %2, align 8, !tbaa !34
  %27 = ptrtoint ptr %26 to i64
  %28 = load ptr, ptr %2, align 8, !tbaa !34
  %29 = getelementptr inbounds nuw %struct.MEMO, ptr %28, i32 0, i32 4
  %30 = getelementptr inbounds [2 x i64], ptr %3, i64 0, i64 0
  %31 = call i64 @rb_big_unpack(ptr noundef %30, i64 noundef 2)
  %32 = call i64 @rb_obj_write(i64 noundef %27, ptr noundef %29, i64 noundef %31, ptr noundef @.str.80, i32 noundef 222)
  %33 = load ptr, ptr %2, align 8, !tbaa !34
  %34 = getelementptr inbounds nuw %struct.MEMO, ptr %33, i32 0, i32 0
  %35 = load i64, ptr %34, align 8, !tbaa !113
  %36 = or i64 %35, 65536
  store i64 %36, ptr %34, align 8, !tbaa !113
  call void @llvm.lifetime.end.p0(i64 16, ptr %3) #22
  br label %37

37:                                               ; preds = %25, %19
  br label %38

38:                                               ; preds = %37, %9
  ret void
}