; Function Attrs: nounwind sspstrong uwtable
define internal fastcc void @imemo_count_up(ptr noundef %0) unnamed_addr #0 {
  %2 = alloca [2 x i64], align 16
  %3 = load i64, ptr %0, align 8, !tbaa !58
  %4 = and i64 %3, 65536
  %.not = icmp eq i64 %4, 0
  %5 = getelementptr inbounds nuw i8, ptr %0, i64 32
  %6 = load i64, ptr %5, align 8, !tbaa !22
  br i1 %.not, label %15, label %7

7:                                                ; preds = %1
  %8 = tail call i64 @rb_int_succ(i64 noundef %6) #14
  store i64 %8, ptr %5, align 8, !tbaa !7
  %9 = icmp eq i64 %8, 0
  %10 = and i64 %8, 7
  %11 = icmp ne i64 %10, 0
  %12 = or i1 %9, %11
  br i1 %12, label %rb_obj_write.exit, label %13

13:                                               ; preds = %7
  %14 = ptrtoint ptr %0 to i64
  tail call void @rb_gc_writebarrier(i64 noundef %14, i64 noundef %8) #14
  br label %rb_obj_write.exit

15:                                               ; preds = %1
  %16 = add i64 %6, 1
  store i64 %16, ptr %5, align 8, !tbaa !22
  %17 = icmp eq i64 %16, 0
  br i1 %17, label %18, label %rb_obj_write.exit

18:                                               ; preds = %15
  call void @llvm.lifetime.start.p0(i64 16, ptr nonnull %2) #14
  call void @llvm.memcpy.p0.p0.i64(ptr noundef nonnull align 16 dereferenceable(16) %2, ptr noundef nonnull align 16 dereferenceable(16) @__const.imemo_count_up.buf, i64 16, i1 false)
  %19 = call i64 @rb_big_unpack(ptr noundef nonnull %2, i64 noundef 2) #14
  store i64 %19, ptr %5, align 8, !tbaa !7
  %20 = icmp eq i64 %19, 0
  %21 = and i64 %19, 7
  %22 = icmp ne i64 %21, 0
  %23 = or i1 %20, %22
  br i1 %23, label %rb_obj_write.exit8, label %24

24:                                               ; preds = %18
  %25 = ptrtoint ptr %0 to i64
  call void @rb_gc_writebarrier(i64 noundef %25, i64 noundef %19) #14
  br label %rb_obj_write.exit8

rb_obj_write.exit8:                               ; preds = %18, %24
  %26 = load i64, ptr %0, align 8, !tbaa !58
  %27 = or i64 %26, 65536
  store i64 %27, ptr %0, align 8, !tbaa !58
  call void @llvm.lifetime.end.p0(i64 16, ptr nonnull %2) #14
  br label %rb_obj_write.exit

rb_obj_write.exit:                                ; preds = %13, %7, %15, %rb_obj_write.exit8
  ret void
}